; Function Attrs: nounwind uwtable
define internal fastcc range(i32 -1, 1) i32 @gz_comp(ptr noundef nonnull %0, i32 noundef range(i32 0, 6) %1) unnamed_addr #0 {
  %3 = getelementptr inbounds nuw i8, ptr %0, i64 128
  %4 = getelementptr inbounds nuw i8, ptr %0, i64 40
  %5 = load i32, ptr %4, align 8, !tbaa !16
  %6 = icmp eq i32 %5, 0
  br i1 %6, label %7, label %10

7:                                                ; preds = %2
  %8 = tail call fastcc i32 @gz_init(ptr noundef %0)
  %9 = icmp eq i32 %8, -1
  br i1 %9, label %.loopexit, label %10

10:                                               ; preds = %7, %2
  %11 = getelementptr inbounds nuw i8, ptr %0, i64 64
  %12 = load i32, ptr %11, align 8, !tbaa !30
  %.not = icmp eq i32 %12, 0
  br i1 %.not, label %34, label %.preheader

.preheader:                                       ; preds = %10
  %13 = getelementptr inbounds nuw i8, ptr %0, i64 136
  %14 = load i32, ptr %13, align 8, !tbaa !19
  %.not7276 = icmp eq i32 %14, 0
  br i1 %.not7276, label %.loopexit, label %.lr.ph

.lr.ph:                                           ; preds = %.preheader
  %15 = getelementptr inbounds nuw i8, ptr %0, i64 28
  %.pre = load ptr, ptr %3, align 8, !tbaa !23
  br label %16

16:                                               ; preds = %.lr.ph, %28
  %17 = phi ptr [ %.pre, %.lr.ph ], [ %33, %28 ]
  %18 = phi i32 [ %14, %.lr.ph ], [ %30, %28 ]
  %narrow = tail call i32 @llvm.umin.i32(i32 %18, i32 1073741824)
  %19 = zext nneg i32 %narrow to i64
  %20 = load i32, ptr %15, align 4, !tbaa !37
  %21 = tail call i64 @write(i32 noundef %20, ptr noundef %17, i64 noundef %19) #14
  %22 = trunc i64 %21 to i32
  %23 = icmp slt i32 %22, 0
  br i1 %23, label %24, label %28

24:                                               ; preds = %16
  %25 = tail call ptr @__errno_location() #17
  %26 = load i32, ptr %25, align 4, !tbaa !38
  %27 = tail call ptr @strerror(i32 noundef %26) #14
  tail call void @cm_zlib_gz_error(ptr noundef nonnull %0, i32 noundef -1, ptr noundef %27) #14
  br label %.loopexit

28:                                               ; preds = %16
  %29 = load i32, ptr %13, align 8, !tbaa !19
  %30 = sub i32 %29, %22
  store i32 %30, ptr %13, align 8, !tbaa !19
  %31 = load ptr, ptr %3, align 8, !tbaa !23
  %32 = and i64 %21, 2147483647
  %33 = getelementptr inbounds nuw i8, ptr %31, i64 %32
  store ptr %33, ptr %3, align 8, !tbaa !23
  %.not72 = icmp eq i32 %30, 0
  br i1 %.not72, label %.loopexit, label %16, !llvm.loop !39

34:                                               ; preds = %10
  %35 = getelementptr inbounds nuw i8, ptr %0, i64 96
  %36 = load i32, ptr %35, align 8, !tbaa !40
  %.not68 = icmp eq i32 %36, 0
  br i1 %.not68, label %43, label %37

37:                                               ; preds = %34
  %38 = getelementptr inbounds nuw i8, ptr %0, i64 136
  %39 = load i32, ptr %38, align 8, !tbaa !19
  %40 = icmp eq i32 %39, 0
  br i1 %40, label %.loopexit, label %41

41:                                               ; preds = %37
  %42 = tail call i32 @cm_zlib_deflateReset(ptr noundef nonnull %3) #14
  store i32 0, ptr %35, align 8, !tbaa !40
  br label %43

43:                                               ; preds = %41, %34
  %44 = getelementptr inbounds nuw i8, ptr %0, i64 160
  %.not69 = icmp eq i32 %1, 0
  %45 = icmp ne i32 %1, 4
  %46 = getelementptr inbounds nuw i8, ptr %0, i64 152
  %47 = getelementptr inbounds nuw i8, ptr %0, i64 8
  %48 = getelementptr inbounds nuw i8, ptr %0, i64 28
  %49 = getelementptr inbounds nuw i8, ptr %0, i64 56
  %.pre90 = load i32, ptr %44, align 8, !tbaa !34
  br i1 %.not69, label %.split.us, label %.split

.split.us:                                        ; preds = %43, %63
  %50 = phi i32 [ %64, %63 ], [ %.pre90, %43 ]
  %51 = icmp eq i32 %50, 0
  br i1 %51, label %52, label %59

52:                                               ; preds = %.split.us
  %53 = load ptr, ptr %46, align 8, !tbaa !35
  %54 = load ptr, ptr %47, align 8, !tbaa !36
  %55 = icmp ugt ptr %53, %54
  br i1 %55, label %.lr.ph77.us, label %._crit_edge.us.thread

._crit_edge.us:                                   ; preds = %75
  %.pre91 = load i32, ptr %44, align 8, !tbaa !34
  %56 = icmp eq i32 %.pre91, 0
  br i1 %56, label %._crit_edge.us.thread, label %59

._crit_edge.us.thread:                            ; preds = %52, %._crit_edge.us
  %57 = load i32, ptr %4, align 8, !tbaa !16
  store i32 %57, ptr %44, align 8, !tbaa !34
  %58 = load ptr, ptr %49, align 8, !tbaa !31
  store ptr %58, ptr %46, align 8, !tbaa !35
  store ptr %58, ptr %47, align 8, !tbaa !36
  br label %59

59:                                               ; preds = %.split.us, %._crit_edge.us.thread, %._crit_edge.us
  %60 = phi i32 [ %50, %.split.us ], [ %57, %._crit_edge.us.thread ], [ %.pre91, %._crit_edge.us ]
  %61 = tail call i32 @cm_zlib_deflate(ptr noundef nonnull %3, i32 noundef 0) #14
  %62 = icmp eq i32 %61, -2
  br i1 %62, label %.split79.us, label %63

63:                                               ; preds = %59
  %64 = load i32, ptr %44, align 8, !tbaa !34
  %.not70.us = icmp eq i32 %60, %64
  br i1 %.not70.us, label %.split81.us, label %.split.us, !llvm.loop !41

.lr.ph77.us:                                      ; preds = %52, %75
  %65 = phi ptr [ %78, %75 ], [ %54, %52 ]
  %66 = phi ptr [ %79, %75 ], [ %53, %52 ]
  %67 = ptrtoint ptr %66 to i64
  %68 = ptrtoint ptr %65 to i64
  %69 = sub i64 %67, %68
  %70 = tail call i64 @llvm.smin.i64(i64 %69, i64 1073741824)
  %71 = and i64 %70, 4294967295
  %72 = load i32, ptr %48, align 4, !tbaa !37
  %73 = tail call i64 @write(i32 noundef %72, ptr noundef %65, i64 noundef %71) #14
  %74 = and i64 %73, 2147483648
  %.not71.us = icmp eq i64 %74, 0
  br i1 %.not71.us, label %75, label %.split83.us

75:                                               ; preds = %.lr.ph77.us
  %76 = load ptr, ptr %47, align 8, !tbaa !36
  %77 = and i64 %73, 2147483647
  %78 = getelementptr inbounds nuw i8, ptr %76, i64 %77
  store ptr %78, ptr %47, align 8, !tbaa !36
  %79 = load ptr, ptr %46, align 8, !tbaa !35
  %80 = icmp ugt ptr %79, %78
  br i1 %80, label %.lr.ph77.us, label %._crit_edge.us, !llvm.loop !42

.split:                                           ; preds = %43, %116
  %81 = phi i32 [ %117, %116 ], [ %.pre90, %43 ]
  %.059 = phi i32 [ %114, %116 ], [ 0, %43 ]
  %82 = icmp eq i32 %81, 0
  %83 = icmp eq i32 %.059, 1
  %or.cond = or i1 %45, %83
  %or.cond84 = or i1 %82, %or.cond
  br i1 %or.cond84, label %84, label %112

84:                                               ; preds = %.split
  %85 = load ptr, ptr %46, align 8, !tbaa !35
  %86 = load ptr, ptr %47, align 8, !tbaa !36
  %87 = icmp ugt ptr %85, %86
  br i1 %87, label %.lr.ph77, label %._crit_edge

.lr.ph77:                                         ; preds = %84, %101
  %88 = phi ptr [ %104, %101 ], [ %86, %84 ]
  %89 = phi ptr [ %105, %101 ], [ %85, %84 ]
  %90 = ptrtoint ptr %89 to i64
  %91 = ptrtoint ptr %88 to i64
  %92 = sub i64 %90, %91
  %93 = tail call i64 @llvm.smin.i64(i64 %92, i64 1073741824)
  %94 = and i64 %93, 4294967295
  %95 = load i32, ptr %48, align 4, !tbaa !37
  %96 = tail call i64 @write(i32 noundef %95, ptr noundef %88, i64 noundef %94) #14
  %97 = and i64 %96, 2147483648
  %.not71 = icmp eq i64 %97, 0
  br i1 %.not71, label %101, label %.split83.us

.split83.us:                                      ; preds = %.lr.ph77, %.lr.ph77.us
  %98 = tail call ptr @__errno_location() #17
  %99 = load i32, ptr %98, align 4, !tbaa !38
  %100 = tail call ptr @strerror(i32 noundef %99) #14
  tail call void @cm_zlib_gz_error(ptr noundef nonnull %0, i32 noundef -1, ptr noundef %100) #14
  br label %.loopexit

101:                                              ; preds = %.lr.ph77
  %102 = load ptr, ptr %47, align 8, !tbaa !36
  %103 = and i64 %96, 2147483647
  %104 = getelementptr inbounds nuw i8, ptr %102, i64 %103
  store ptr %104, ptr %47, align 8, !tbaa !36
  %105 = load ptr, ptr %46, align 8, !tbaa !35
  %106 = icmp ugt ptr %105, %104
  br i1 %106, label %.lr.ph77, label %._crit_edge.loopexit, !llvm.loop !42

._crit_edge.loopexit:                             ; preds = %101
  %.pre89 = load i32, ptr %44, align 8, !tbaa !34
  br label %._crit_edge

._crit_edge:                                      ; preds = %._crit_edge.loopexit, %84
  %107 = phi i32 [ %.pre89, %._crit_edge.loopexit ], [ %81, %84 ]
  %108 = icmp eq i32 %107, 0
  br i1 %108, label %109, label %112

109:                                              ; preds = %._crit_edge
  %110 = load i32, ptr %4, align 8, !tbaa !16
  store i32 %110, ptr %44, align 8, !tbaa !34
  %111 = load ptr, ptr %49, align 8, !tbaa !31
  store ptr %111, ptr %46, align 8, !tbaa !35
  store ptr %111, ptr %47, align 8, !tbaa !36
  br label %112

112:                                              ; preds = %.split, %._crit_edge, %109
  %113 = phi i32 [ %81, %.split ], [ %107, %._crit_edge ], [ %110, %109 ]
  %114 = tail call i32 @cm_zlib_deflate(ptr noundef nonnull %3, i32 noundef %1) #14
  %115 = icmp eq i32 %114, -2
  br i1 %115, label %.split79.us, label %116

.split79.us:                                      ; preds = %112, %59
  tail call void @cm_zlib_gz_error(ptr noundef nonnull %0, i32 noundef -2, ptr noundef nonnull @.str.5) #14
  br label %.loopexit

116:                                              ; preds = %112
  %117 = load i32, ptr %44, align 8, !tbaa !34
  %.not70 = icmp eq i32 %113, %117
  br i1 %.not70, label %.split81.us, label %.split, !llvm.loop !41

.split81.us:                                      ; preds = %116, %63
  %118 = icmp eq i32 %1, 4
  br i1 %118, label %119, label %.loopexit

119:                                              ; preds = %.split81.us
  store i32 1, ptr %35, align 8, !tbaa !40
  br label %.loopexit

.loopexit:                                        ; preds = %28, %.preheader, %.split81.us, %119, %37, %7, %.split79.us, %.split83.us, %24
  %.0 = phi i32 [ -1, %24 ], [ -1, %.split83.us ], [ -1, %.split79.us ], [ -1, %7 ], [ 0, %37 ], [ 0, %119 ], [ 0, %.split81.us ], [ 0, %.preheader ], [ 0, %28 ]
  ret i32 %.0
}